; Function Attrs: mustprogress uwtable
define void @ggml_backend_event_record(ptr noundef %0, ptr noundef %1) local_unnamed_addr #0 {
  %3 = getelementptr inbounds nuw i8, ptr %1, i64 96
  %4 = load ptr, ptr %3, align 8, !tbaa !82
  %.not = icmp eq ptr %4, null
  br i1 %.not, label %5, label %6

5:                                                ; preds = %2
  tail call void (ptr, i32, ptr, ...) @ggml_abort(ptr noundef nonnull @.str, i32 noundef 429, ptr noundef nonnull @.str.1, ptr noundef nonnull @.str.14) #24
  unreachable

6:                                                ; preds = %2
  tail call void %4(ptr noundef nonnull %1, ptr noundef %0)
  ret void
}